; Function Attrs: nounwind uwtable
define range(i32 0, 2) i32 @Gia_ManOrderWithBoxes_rec(ptr noundef %0, ptr noundef %1, ptr noundef %2) local_unnamed_addr #0 {
  %4 = getelementptr inbounds nuw i8, ptr %0, i64 616
  %5 = load ptr, ptr %4, align 8, !tbaa !65
  %6 = getelementptr i8, ptr %0, i64 32
  %.val.i = load ptr, ptr %6, align 8, !tbaa !39
  %7 = ptrtoint ptr %1 to i64
  %8 = ptrtoint ptr %.val.i to i64
  %9 = sub i64 %7, %8
  %10 = sdiv exact i64 %9, 12
  %sext.i = shl i64 %10, 32
  %11 = ashr exact i64 %sext.i, 30
  %12 = getelementptr inbounds i8, ptr %5, i64 %11
  %13 = load i32, ptr %12, align 4, !tbaa !33
  %14 = getelementptr inbounds nuw i8, ptr %0, i64 176
  %15 = load i32, ptr %14, align 8, !tbaa !66
  %.not = icmp eq i32 %13, %15
  br i1 %.not, label %96, label %16

16:                                               ; preds = %3
  store i32 %15, ptr %12, align 4, !tbaa !33
  %.val = load i64, ptr %1, align 4
  %17 = and i64 %.val, 2684354559
  %narrow.i.not = icmp eq i64 %17, 2684354559
  br i1 %narrow.i.not, label %18, label %23

18:                                               ; preds = %16
  %19 = lshr i64 %.val, 32
  %20 = trunc nuw i64 %19 to i32
  %21 = and i32 %20, 536870911
  %22 = getelementptr inbounds nuw i8, ptr %0, i64 788
  store i32 %21, ptr %22, align 4, !tbaa !67
  br label %96

23:                                               ; preds = %16
  %24 = trunc i64 %.val to i32
  %25 = and i32 %24, 536870911
  %26 = lshr i64 %.val, 32
  %27 = trunc nuw i64 %26 to i32
  %28 = and i32 %27, 536870911
  %29 = icmp ne i32 %25, %28
  %.not.i = icmp eq i32 %25, 536870911
  %or.cond.not.i.not53 = or i1 %.not.i, %29
  %30 = and i64 %.val, 2147483648
  %.not4.i = icmp ne i64 %30, 0
  %narrow.i47.not = or i1 %.not4.i, %or.cond.not.i.not53
  br i1 %narrow.i47.not, label %72, label %31

31:                                               ; preds = %23
  %32 = and i64 %.val, 536870911
  %33 = sub nsw i64 0, %32
  %34 = getelementptr inbounds %struct.Gia_Obj_t_, ptr %1, i64 %33
  %35 = tail call i32 @Gia_ManOrderWithBoxes_rec(ptr noundef nonnull %0, ptr noundef nonnull %34, ptr noundef %2)
  %.not37 = icmp eq i32 %35, 0
  br i1 %.not37, label %36, label %96

36:                                               ; preds = %31
  %.val38 = load ptr, ptr %6, align 8, !tbaa !39
  %37 = ptrtoint ptr %.val38 to i64
  %38 = sub i64 %7, %37
  %39 = sdiv exact i64 %38, 12
  %40 = trunc i64 %39 to i32
  %41 = getelementptr inbounds nuw i8, ptr %2, i64 4
  %42 = load i32, ptr %41, align 4, !tbaa !29
  %43 = load i32, ptr %2, align 8, !tbaa !55
  %44 = icmp eq i32 %42, %43
  br i1 %44, label %45, label %.Vec_IntGrow.exit10_crit_edge.i

.Vec_IntGrow.exit10_crit_edge.i:                  ; preds = %36
  %.phi.trans.insert.i = getelementptr inbounds nuw i8, ptr %2, i64 8
  %.pre.i = load ptr, ptr %.phi.trans.insert.i, align 8, !tbaa !32
  br label %Vec_IntPush.exit

45:                                               ; preds = %36
  %46 = icmp slt i32 %42, 16
  br i1 %46, label %47, label %55

47:                                               ; preds = %45
  %48 = getelementptr inbounds nuw i8, ptr %2, i64 8
  %49 = load ptr, ptr %48, align 8, !tbaa !32
  %.not9.i.i = icmp eq ptr %49, null
  br i1 %.not9.i.i, label %52, label %50

50:                                               ; preds = %47
  %51 = tail call dereferenceable_or_null(64) ptr @realloc(ptr noundef nonnull %49, i64 noundef 64) #23
  br label %Vec_IntGrow.exit.i

52:                                               ; preds = %47
  %53 = tail call noalias dereferenceable_or_null(64) ptr @malloc(i64 noundef 64) #22
  br label %Vec_IntGrow.exit.i

Vec_IntGrow.exit.i:                               ; preds = %52, %50
  %54 = phi ptr [ %51, %50 ], [ %53, %52 ]
  store ptr %54, ptr %48, align 8, !tbaa !32
  store i32 16, ptr %2, align 8, !tbaa !55
  br label %Vec_IntPush.exit

55:                                               ; preds = %45
  %56 = shl nuw nsw i32 %42, 1
  %57 = getelementptr inbounds nuw i8, ptr %2, i64 8
  %58 = load ptr, ptr %57, align 8, !tbaa !32
  %.not9.i9.i = icmp eq ptr %58, null
  %59 = zext nneg i32 %56 to i64
  %60 = shl nuw nsw i64 %59, 2
  br i1 %.not9.i9.i, label %63, label %61

61:                                               ; preds = %55
  %62 = tail call ptr @realloc(ptr noundef nonnull %58, i64 noundef %60) #23
  br label %65

63:                                               ; preds = %55
  %64 = tail call noalias ptr @malloc(i64 noundef %60) #22
  br label %65

65:                                               ; preds = %63, %61
  %66 = phi ptr [ %62, %61 ], [ %64, %63 ]
  store ptr %66, ptr %57, align 8, !tbaa !32
  store i32 %56, ptr %2, align 8, !tbaa !55
  br label %Vec_IntPush.exit

Vec_IntPush.exit:                                 ; preds = %.Vec_IntGrow.exit10_crit_edge.i, %Vec_IntGrow.exit.i, %65
  %67 = phi ptr [ %.pre.i, %.Vec_IntGrow.exit10_crit_edge.i ], [ %66, %65 ], [ %54, %Vec_IntGrow.exit.i ]
  %68 = load i32, ptr %41, align 4, !tbaa !29
  %69 = add nsw i32 %68, 1
  store i32 %69, ptr %41, align 4, !tbaa !29
  %70 = sext i32 %68 to i64
  %71 = getelementptr inbounds i32, ptr %67, i64 %70
  store i32 %40, ptr %71, align 4, !tbaa !33
  br label %96

72:                                               ; preds = %23
  %73 = getelementptr i8, ptr %0, i64 208
  %.val44 = load ptr, ptr %73, align 8, !tbaa !68
  %.not.i48 = icmp eq ptr %.val44, null
  br i1 %.not.i48, label %Gia_ObjSibl.exit.thread, label %Gia_ObjSibl.exit

Gia_ObjSibl.exit:                                 ; preds = %72
  %74 = getelementptr inbounds i8, ptr %.val44, i64 %11
  %75 = load i32, ptr %74, align 4, !tbaa !33
  %.not33 = icmp eq i32 %75, 0
  br i1 %.not33, label %Gia_ObjSibl.exit.thread, label %Gia_ObjSiblObj.exit

Gia_ObjSiblObj.exit:                              ; preds = %Gia_ObjSibl.exit
  %76 = sext i32 %75 to i64
  %77 = getelementptr inbounds %struct.Gia_Obj_t_, ptr %.val.i, i64 %76
  %78 = tail call i32 @Gia_ManOrderWithBoxes_rec(ptr noundef nonnull %0, ptr noundef nonnull %77, ptr noundef %2)
  %.not34 = icmp eq i32 %78, 0
  br i1 %.not34, label %Gia_ObjSiblObj.exit.Gia_ObjSibl.exit.thread_crit_edge, label %96

Gia_ObjSiblObj.exit.Gia_ObjSibl.exit.thread_crit_edge: ; preds = %Gia_ObjSiblObj.exit
  %.pre = load i64, ptr %1, align 4
  br label %Gia_ObjSibl.exit.thread

Gia_ObjSibl.exit.thread:                          ; preds = %Gia_ObjSiblObj.exit.Gia_ObjSibl.exit.thread_crit_edge, %72, %Gia_ObjSibl.exit
  %79 = phi i64 [ %.pre, %Gia_ObjSiblObj.exit.Gia_ObjSibl.exit.thread_crit_edge ], [ %.val, %72 ], [ %.val, %Gia_ObjSibl.exit ]
  %80 = and i64 %79, 536870911
  %81 = sub nsw i64 0, %80
  %82 = getelementptr inbounds %struct.Gia_Obj_t_, ptr %1, i64 %81
  %83 = tail call i32 @Gia_ManOrderWithBoxes_rec(ptr noundef nonnull %0, ptr noundef nonnull %82, ptr noundef %2)
  %.not35 = icmp eq i32 %83, 0
  br i1 %.not35, label %84, label %96

84:                                               ; preds = %Gia_ObjSibl.exit.thread
  %85 = load i64, ptr %1, align 4
  %86 = lshr i64 %85, 32
  %87 = and i64 %86, 536870911
  %88 = sub nsw i64 0, %87
  %89 = getelementptr inbounds %struct.Gia_Obj_t_, ptr %1, i64 %88
  %90 = tail call i32 @Gia_ManOrderWithBoxes_rec(ptr noundef nonnull %0, ptr noundef nonnull %89, ptr noundef %2)
  %.not36 = icmp eq i32 %90, 0
  br i1 %.not36, label %91, label %96

91:                                               ; preds = %84
  %.val41 = load ptr, ptr %6, align 8, !tbaa !39
  %92 = ptrtoint ptr %.val41 to i64
  %93 = sub i64 %7, %92
  %94 = sdiv exact i64 %93, 12
  %95 = trunc i64 %94 to i32
  tail call fastcc void @Vec_IntPush(ptr noundef %2, i32 noundef %95)
  br label %96

96:                                               ; preds = %84, %Gia_ObjSibl.exit.thread, %Gia_ObjSiblObj.exit, %31, %3, %91, %Vec_IntPush.exit, %18
  %.0 = phi i32 [ 1, %18 ], [ 0, %Vec_IntPush.exit ], [ 0, %91 ], [ 0, %3 ], [ 1, %31 ], [ 1, %Gia_ObjSiblObj.exit ], [ 1, %Gia_ObjSibl.exit.thread ], [ 1, %84 ]
  ret i32 %.0
}